---
triple:          'arm64-apple-darwin'
binary-path:     '/Users/alekseyefimov/Development/Programming/xyz/xyz-cpp-course-template-latest/AppleGames/Menu'
relocations:
  - { offsetInCU: 0x26, offset: 0x26, size: 0x8, addend: 0x0, symName: __ZN10ApplesGame8DrawGameERN2sf12RenderWindowERNS_9GameStateERNS_8MenuInfoE, symObjAddr: 0x0, symBinAddr: 0x100003EC4, symSize: 0x1C0 }
  - { offsetInCU: 0x15CA0, offset: 0x15CA0, size: 0x8, addend: 0x0, symName: __ZN10ApplesGame8DrawGameERN2sf12RenderWindowERNS_9GameStateERNS_8MenuInfoE, symObjAddr: 0x0, symBinAddr: 0x100003EC4, symSize: 0x1C0 }
  - { offsetInCU: 0x9D49, offset: 0x224E9, size: 0x8, addend: 0x0, symName: __ZNSt3__1plB8ue170006IcNS_11char_traitsIcEENS_9allocatorIcEEEENS_12basic_stringIT_T0_T1_EEOS9_SA_, symObjAddr: 0xA24, symBinAddr: 0x100004AA8, symSize: 0x40 }
  - { offsetInCU: 0x9DA1, offset: 0x22541, size: 0x8, addend: 0x0, symName: __ZNSt3__1plB8ue170006IcNS_11char_traitsIcEENS_9allocatorIcEEEENS_12basic_stringIT_T0_T1_EEOS9_PKS6_, symObjAddr: 0xA64, symBinAddr: 0x100004AE8, symSize: 0x40 }
  - { offsetInCU: 0x9DF9, offset: 0x22599, size: 0x8, addend: 0x0, symName: __ZNSt3__1plB8ue170006IcNS_11char_traitsIcEENS_9allocatorIcEEEENS_12basic_stringIT_T0_T1_EEPKS6_OS9_, symObjAddr: 0xAA4, symBinAddr: 0x100004B28, symSize: 0x44 }
  - { offsetInCU: 0xC5E8, offset: 0x24D88, size: 0x8, addend: 0x0, symName: __ZNSt3__119__libcpp_deallocateB8ue170006EPvmm, symObjAddr: 0x1580, symBinAddr: 0x100005604, symSize: 0x60 }
  - { offsetInCU: 0xC64F, offset: 0x24DEF, size: 0x8, addend: 0x0, symName: __ZNSt3__124__is_overaligned_for_newB8ue170006Em, symObjAddr: 0x15EC, symBinAddr: 0x100005670, symSize: 0x20 }
  - { offsetInCU: 0xC67E, offset: 0x24E1E, size: 0x8, addend: 0x0, symName: __ZNSt3__127__do_deallocate_handle_sizeB8ue170006IJSt11align_val_tEEEvPvmDpT_, symObjAddr: 0x160C, symBinAddr: 0x100005690, symSize: 0x30 }
  - { offsetInCU: 0xC6D3, offset: 0x24E73, size: 0x8, addend: 0x0, symName: __ZNSt3__127__do_deallocate_handle_sizeB8ue170006IJEEEvPvmDpT_, symObjAddr: 0x163C, symBinAddr: 0x1000056C0, symSize: 0x28 }
  - { offsetInCU: 0xC713, offset: 0x24EB3, size: 0x8, addend: 0x0, symName: __ZNSt3__124__libcpp_operator_deleteB8ue170006IJPvSt11align_val_tEEEvDpT_, symObjAddr: 0x1664, symBinAddr: 0x1000056E8, symSize: 0x2C }
  - { offsetInCU: 0xC75E, offset: 0x24EFE, size: 0x8, addend: 0x0, symName: __ZNSt3__124__libcpp_operator_deleteB8ue170006IJPvEEEvDpT_, symObjAddr: 0x1690, symBinAddr: 0x100005714, symSize: 0x24 }
  - { offsetInCU: 0xC795, offset: 0x24F35, size: 0x8, addend: 0x0, symName: __ZNSt3__118__constexpr_strlenB8ue170006EPKc, symObjAddr: 0x18A8, symBinAddr: 0x10000592C, symSize: 0x24 }
  - { offsetInCU: 0xC7C2, offset: 0x24F62, size: 0x8, addend: 0x0, symName: __ZNSt3__112__to_addressB8ue170006IKcEEPT_S3_, symObjAddr: 0x19C8, symBinAddr: 0x100005A4C, symSize: 0x14 }
  - { offsetInCU: 0xC82B, offset: 0x24FCB, size: 0x8, addend: 0x0, symName: __ZNSt3__112__to_addressB8ue170006IN2sf6VertexEEEPT_S4_, symObjAddr: 0x2130, symBinAddr: 0x1000061B4, symSize: 0x14 }
  - { offsetInCU: 0xC861, offset: 0x25001, size: 0x8, addend: 0x0, symName: __ZNSt3__110destroy_atB8ue170006IN2sf6VertexELi0EEEvPT_, symObjAddr: 0x2144, symBinAddr: 0x1000061C8, symSize: 0x24 }
  - { offsetInCU: 0xC898, offset: 0x25038, size: 0x8, addend: 0x0, symName: __ZNSt3__112__destroy_atB8ue170006IN2sf6VertexELi0EEEvPT_, symObjAddr: 0x2168, symBinAddr: 0x1000061EC, symSize: 0x10 }
  - { offsetInCU: 0x10BC1, offset: 0x29361, size: 0x8, addend: 0x0, symName: _main, symObjAddr: 0x0, symBinAddr: 0x100004084, symSize: 0x928 }
  - { offsetInCU: 0x10DB6, offset: 0x29556, size: 0x8, addend: 0x0, symName: __ZN10ApplesGame9GameStateC1Ev, symObjAddr: 0x928, symBinAddr: 0x1000049AC, symSize: 0x2C }
  - { offsetInCU: 0x10DE2, offset: 0x29582, size: 0x8, addend: 0x0, symName: __ZN2sf15ContextSettingsC1Ejjjjjjb, symObjAddr: 0x954, symBinAddr: 0x1000049D8, symSize: 0x70 }
  - { offsetInCU: 0x10E6E, offset: 0x2960E, size: 0x8, addend: 0x0, symName: __ZN2sf6StringD1Ev, symObjAddr: 0x9C4, symBinAddr: 0x100004A48, symSize: 0x2C }
  - { offsetInCU: 0x10E9F, offset: 0x2963F, size: 0x8, addend: 0x0, symName: __ZNSt3__112basic_stringIcNS_11char_traitsIcEENS_9allocatorIcEEEC1B8ue170006ILi0EEEPKc, symObjAddr: 0x9F0, symBinAddr: 0x100004A74, symSize: 0x34 }
  - { offsetInCU: 0x111D6, offset: 0x29976, size: 0x8, addend: 0x0, symName: __ZN10ApplesGame8MenuInfoD1Ev, symObjAddr: 0xAE8, symBinAddr: 0x100004B6C, symSize: 0x2C }
  - { offsetInCU: 0x11202, offset: 0x299A2, size: 0x8, addend: 0x0, symName: __ZN10ApplesGame9GameStateD1Ev, symObjAddr: 0xB14, symBinAddr: 0x100004B98, symSize: 0x2C }
  - { offsetInCU: 0x1122E, offset: 0x299CE, size: 0x8, addend: 0x0, symName: __ZN10ApplesGame9GameStateC2Ev, symObjAddr: 0xB40, symBinAddr: 0x100004BC4, symSize: 0x49C }
  - { offsetInCU: 0x1125F, offset: 0x299FF, size: 0x8, addend: 0x0, symName: __ZN10ApplesGame6PlayerC1Ev, symObjAddr: 0xFDC, symBinAddr: 0x100005060, symSize: 0x2C }
  - { offsetInCU: 0x1128B, offset: 0x29A2B, size: 0x8, addend: 0x0, symName: __ZN2sf6SpriteD1Ev, symObjAddr: 0x1008, symBinAddr: 0x10000508C, symSize: 0x2C }
  - { offsetInCU: 0x112BC, offset: 0x29A5C, size: 0x8, addend: 0x0, symName: __ZN10ApplesGame13SizeRockShapeC1Ev, symObjAddr: 0x1034, symBinAddr: 0x1000050B8, symSize: 0x2C }
  - { offsetInCU: 0x112E8, offset: 0x29A88, size: 0x8, addend: 0x0, symName: __ZN2sf7Vector2IfEC1Eff, symObjAddr: 0x1060, symBinAddr: 0x1000050E4, symSize: 0x3C }
  - { offsetInCU: 0x11330, offset: 0x29AD0, size: 0x8, addend: 0x0, symName: __ZN2sf14RectangleShapeD1Ev, symObjAddr: 0x109C, symBinAddr: 0x100005120, symSize: 0x2C }
  - { offsetInCU: 0x1135C, offset: 0x29AFC, size: 0x8, addend: 0x0, symName: __ZN10ApplesGame6PlayerD1Ev, symObjAddr: 0x10C8, symBinAddr: 0x10000514C, symSize: 0x2C }
  - { offsetInCU: 0x11388, offset: 0x29B28, size: 0x8, addend: 0x0, symName: __ZN10ApplesGame6PlayerC2Ev, symObjAddr: 0x10F4, symBinAddr: 0x100005178, symSize: 0x7C }
  - { offsetInCU: 0x113B4, offset: 0x29B54, size: 0x8, addend: 0x0, symName: __ZN2sf6SpriteD2Ev, symObjAddr: 0x1170, symBinAddr: 0x1000051F4, symSize: 0x38 }
  - { offsetInCU: 0x113E0, offset: 0x29B80, size: 0x8, addend: 0x0, symName: __ZThn8_N2sf6SpriteD1Ev, symObjAddr: 0x11A8, symBinAddr: 0x10000522C, symSize: 0x1C }
  - { offsetInCU: 0x113F6, offset: 0x29B96, size: 0x8, addend: 0x0, symName: __ZN2sf8DrawableD2Ev, symObjAddr: 0x11C4, symBinAddr: 0x100005248, symSize: 0x14 }
  - { offsetInCU: 0x11420, offset: 0x29BC0, size: 0x8, addend: 0x0, symName: __ZN10ApplesGame13SizeRockShapeC2Ev, symObjAddr: 0x11D8, symBinAddr: 0x10000525C, symSize: 0x58 }
  - { offsetInCU: 0x1144C, offset: 0x29BEC, size: 0x8, addend: 0x0, symName: __ZN2sf7Vector2IfEC2Eff, symObjAddr: 0x1230, symBinAddr: 0x1000052B4, symSize: 0x2C }
  - { offsetInCU: 0x11494, offset: 0x29C34, size: 0x8, addend: 0x0, symName: __ZN2sf14RectangleShapeD2Ev, symObjAddr: 0x125C, symBinAddr: 0x1000052E0, symSize: 0x2C }
  - { offsetInCU: 0x114C0, offset: 0x29C60, size: 0x8, addend: 0x0, symName: __ZThn8_N2sf14RectangleShapeD1Ev, symObjAddr: 0x1288, symBinAddr: 0x10000530C, symSize: 0x1C }
  - { offsetInCU: 0x114D6, offset: 0x29C76, size: 0x8, addend: 0x0, symName: __ZN10ApplesGame6PlayerD2Ev, symObjAddr: 0x12A4, symBinAddr: 0x100005328, symSize: 0x3C }
  - { offsetInCU: 0x11502, offset: 0x29CA2, size: 0x8, addend: 0x0, symName: __ZN2sf15ContextSettingsC2Ejjjjjjb, symObjAddr: 0x12E0, symBinAddr: 0x100005364, symSize: 0x74 }
  - { offsetInCU: 0x1158E, offset: 0x29D2E, size: 0x8, addend: 0x0, symName: __ZN2sf6StringD2Ev, symObjAddr: 0x1354, symBinAddr: 0x1000053D8, symSize: 0x2C }
  - { offsetInCU: 0x115BA, offset: 0x29D5A, size: 0x8, addend: 0x0, symName: __ZNSt3__112basic_stringIjNS_11char_traitsIjEENS_9allocatorIjEEED1Ev, symObjAddr: 0x1380, symBinAddr: 0x100005404, symSize: 0x2C }
  - { offsetInCU: 0x115E4, offset: 0x29D84, size: 0x8, addend: 0x0, symName: __ZNSt3__112basic_stringIjNS_11char_traitsIjEENS_9allocatorIjEEED2Ev, symObjAddr: 0x13AC, symBinAddr: 0x100005430, symSize: 0x74 }
  - { offsetInCU: 0x1160E, offset: 0x29DAE, size: 0x8, addend: 0x0, symName: __ZNKSt3__112basic_stringIjNS_11char_traitsIjEENS_9allocatorIjEEE9__is_longB8ue170006Ev, symObjAddr: 0x1420, symBinAddr: 0x1000054A4, symSize: 0x38 }
  - { offsetInCU: 0x11634, offset: 0x29DD4, size: 0x8, addend: 0x0, symName: __ZNSt3__116allocator_traitsINS_9allocatorIjEEE10deallocateB8ue170006ERS2_Pjm, symObjAddr: 0x1458, symBinAddr: 0x1000054DC, symSize: 0x34 }
  - { offsetInCU: 0x11676, offset: 0x29E16, size: 0x8, addend: 0x0, symName: __ZNSt3__112basic_stringIjNS_11char_traitsIjEENS_9allocatorIjEEE7__allocB8ue170006Ev, symObjAddr: 0x148C, symBinAddr: 0x100005510, symSize: 0x24 }
  - { offsetInCU: 0x1169C, offset: 0x29E3C, size: 0x8, addend: 0x0, symName: __ZNSt3__112basic_stringIjNS_11char_traitsIjEENS_9allocatorIjEEE18__get_long_pointerB8ue170006Ev, symObjAddr: 0x14B0, symBinAddr: 0x100005534, symSize: 0x28 }
  - { offsetInCU: 0x116C2, offset: 0x29E62, size: 0x8, addend: 0x0, symName: __ZNKSt3__112basic_stringIjNS_11char_traitsIjEENS_9allocatorIjEEE14__get_long_capB8ue170006Ev, symObjAddr: 0x14D8, symBinAddr: 0x10000555C, symSize: 0x30 }
  - { offsetInCU: 0x116E8, offset: 0x29E88, size: 0x8, addend: 0x0, symName: __ZNKSt3__117__compressed_pairINS_12basic_stringIjNS_11char_traitsIjEENS_9allocatorIjEEE5__repES5_E5firstB8ue170006Ev, symObjAddr: 0x1508, symBinAddr: 0x10000558C, symSize: 0x24 }
  - { offsetInCU: 0x1170E, offset: 0x29EAE, size: 0x8, addend: 0x0, symName: __ZNKSt3__122__compressed_pair_elemINS_12basic_stringIjNS_11char_traitsIjEENS_9allocatorIjEEE5__repELi0ELb0EE5__getB8ue170006Ev, symObjAddr: 0x152C, symBinAddr: 0x1000055B0, symSize: 0x14 }
  - { offsetInCU: 0x11734, offset: 0x29ED4, size: 0x8, addend: 0x0, symName: __ZNSt3__19allocatorIjE10deallocateB8ue170006EPjm, symObjAddr: 0x1540, symBinAddr: 0x1000055C4, symSize: 0x40 }
  - { offsetInCU: 0x11776, offset: 0x29F16, size: 0x8, addend: 0x0, symName: __ZNSt3__117__compressed_pairINS_12basic_stringIjNS_11char_traitsIjEENS_9allocatorIjEEE5__repES5_E6secondB8ue170006Ev, symObjAddr: 0x16B4, symBinAddr: 0x100005738, symSize: 0x24 }
  - { offsetInCU: 0x1179C, offset: 0x29F3C, size: 0x8, addend: 0x0, symName: __ZNSt3__122__compressed_pair_elemINS_9allocatorIjEELi1ELb1EE5__getB8ue170006Ev, symObjAddr: 0x16D8, symBinAddr: 0x10000575C, symSize: 0x14 }
  - { offsetInCU: 0x117C2, offset: 0x29F62, size: 0x8, addend: 0x0, symName: __ZNSt3__117__compressed_pairINS_12basic_stringIjNS_11char_traitsIjEENS_9allocatorIjEEE5__repES5_E5firstB8ue170006Ev, symObjAddr: 0x16EC, symBinAddr: 0x100005770, symSize: 0x24 }
  - { offsetInCU: 0x117E8, offset: 0x29F88, size: 0x8, addend: 0x0, symName: __ZNSt3__122__compressed_pair_elemINS_12basic_stringIjNS_11char_traitsIjEENS_9allocatorIjEEE5__repELi0ELb0EE5__getB8ue170006Ev, symObjAddr: 0x1710, symBinAddr: 0x100005794, symSize: 0x14 }
  - { offsetInCU: 0x1180E, offset: 0x29FAE, size: 0x8, addend: 0x0, symName: __ZNSt3__112basic_stringIcNS_11char_traitsIcEENS_9allocatorIcEEEC2B8ue170006ILi0EEEPKc, symObjAddr: 0x1724, symBinAddr: 0x1000057A8, symSize: 0x58 }
  - { offsetInCU: 0x11852, offset: 0x29FF2, size: 0x8, addend: 0x0, symName: __ZNSt3__117__compressed_pairINS_12basic_stringIcNS_11char_traitsIcEENS_9allocatorIcEEE5__repES5_EC1B8ue170006INS_18__default_init_tagESA_EEOT_OT0_, symObjAddr: 0x177C, symBinAddr: 0x100005800, symSize: 0x3C }
  - { offsetInCU: 0x118AA, offset: 0x2A04A, size: 0x8, addend: 0x0, symName: __ZNSt3__111char_traitsIcE6lengthB8ue170006EPKc, symObjAddr: 0x17B8, symBinAddr: 0x10000583C, symSize: 0x34 }
  - { offsetInCU: 0x118CD, offset: 0x2A06D, size: 0x8, addend: 0x0, symName: __ZNSt3__117__compressed_pairINS_12basic_stringIcNS_11char_traitsIcEENS_9allocatorIcEEE5__repES5_EC2B8ue170006INS_18__default_init_tagESA_EEOT_OT0_, symObjAddr: 0x17EC, symBinAddr: 0x100005870, symSize: 0x3C }
  - { offsetInCU: 0x11925, offset: 0x2A0C5, size: 0x8, addend: 0x0, symName: __ZNSt3__122__compressed_pair_elemINS_12basic_stringIcNS_11char_traitsIcEENS_9allocatorIcEEE5__repELi0ELb0EEC2B8ue170006ENS_18__default_init_tagE, symObjAddr: 0x1828, symBinAddr: 0x1000058AC, symSize: 0x14 }
  - { offsetInCU: 0x1195A, offset: 0x2A0FA, size: 0x8, addend: 0x0, symName: __ZNSt3__122__compressed_pair_elemINS_9allocatorIcEELi1ELb1EEC2B8ue170006ENS_18__default_init_tagE, symObjAddr: 0x183C, symBinAddr: 0x1000058C0, symSize: 0x2C }
  - { offsetInCU: 0x1198F, offset: 0x2A12F, size: 0x8, addend: 0x0, symName: __ZNSt3__19allocatorIcEC2B8ue170006Ev, symObjAddr: 0x1868, symBinAddr: 0x1000058EC, symSize: 0x2C }
  - { offsetInCU: 0x119B9, offset: 0x2A159, size: 0x8, addend: 0x0, symName: __ZNSt3__116__non_trivial_ifILb1ENS_9allocatorIcEEEC2B8ue170006Ev, symObjAddr: 0x1894, symBinAddr: 0x100005918, symSize: 0x14 }
  - { offsetInCU: 0x119E3, offset: 0x2A183, size: 0x8, addend: 0x0, symName: __ZNSt3__112basic_stringIcNS_11char_traitsIcEENS_9allocatorIcEEE6appendB8ue170006ERKS5_, symObjAddr: 0x18CC, symBinAddr: 0x100005950, symSize: 0x4C }
  - { offsetInCU: 0x11A18, offset: 0x2A1B8, size: 0x8, addend: 0x0, symName: __ZNSt3__112basic_stringIcNS_11char_traitsIcEENS_9allocatorIcEEEC1B8ue170006EOS5_, symObjAddr: 0x1918, symBinAddr: 0x10000599C, symSize: 0x34 }
  - { offsetInCU: 0x11A51, offset: 0x2A1F1, size: 0x8, addend: 0x0, symName: __ZNKSt3__112basic_stringIcNS_11char_traitsIcEENS_9allocatorIcEEE4dataB8ue170006Ev, symObjAddr: 0x194C, symBinAddr: 0x1000059D0, symSize: 0x28 }
  - { offsetInCU: 0x11A77, offset: 0x2A217, size: 0x8, addend: 0x0, symName: __ZNKSt3__112basic_stringIcNS_11char_traitsIcEENS_9allocatorIcEEE4sizeB8ue170006Ev, symObjAddr: 0x1974, symBinAddr: 0x1000059F8, symSize: 0x54 }
  - { offsetInCU: 0x11A9D, offset: 0x2A23D, size: 0x8, addend: 0x0, symName: __ZNKSt3__112basic_stringIcNS_11char_traitsIcEENS_9allocatorIcEEE13__get_pointerB8ue170006Ev, symObjAddr: 0x19DC, symBinAddr: 0x100005A60, symSize: 0x54 }
  - { offsetInCU: 0x11AC3, offset: 0x2A263, size: 0x8, addend: 0x0, symName: __ZNKSt3__112basic_stringIcNS_11char_traitsIcEENS_9allocatorIcEEE9__is_longB8ue170006Ev, symObjAddr: 0x1A30, symBinAddr: 0x100005AB4, symSize: 0x38 }
  - { offsetInCU: 0x11AE9, offset: 0x2A289, size: 0x8, addend: 0x0, symName: __ZNKSt3__112basic_stringIcNS_11char_traitsIcEENS_9allocatorIcEEE18__get_long_pointerB8ue170006Ev, symObjAddr: 0x1A68, symBinAddr: 0x100005AEC, symSize: 0x28 }
  - { offsetInCU: 0x11B0F, offset: 0x2A2AF, size: 0x8, addend: 0x0, symName: __ZNKSt3__112basic_stringIcNS_11char_traitsIcEENS_9allocatorIcEEE19__get_short_pointerB8ue170006Ev, symObjAddr: 0x1A90, symBinAddr: 0x100005B14, symSize: 0x28 }
  - { offsetInCU: 0x11B35, offset: 0x2A2D5, size: 0x8, addend: 0x0, symName: __ZNKSt3__117__compressed_pairINS_12basic_stringIcNS_11char_traitsIcEENS_9allocatorIcEEE5__repES5_E5firstB8ue170006Ev, symObjAddr: 0x1AB8, symBinAddr: 0x100005B3C, symSize: 0x24 }
  - { offsetInCU: 0x11B5B, offset: 0x2A2FB, size: 0x8, addend: 0x0, symName: __ZNKSt3__122__compressed_pair_elemINS_12basic_stringIcNS_11char_traitsIcEENS_9allocatorIcEEE5__repELi0ELb0EE5__getB8ue170006Ev, symObjAddr: 0x1ADC, symBinAddr: 0x100005B60, symSize: 0x14 }
  - { offsetInCU: 0x11B81, offset: 0x2A321, size: 0x8, addend: 0x0, symName: __ZNSt3__114pointer_traitsIPKcE10pointer_toB8ue170006ERS1_, symObjAddr: 0x1AF0, symBinAddr: 0x100005B74, symSize: 0x14 }
  - { offsetInCU: 0x11BA4, offset: 0x2A344, size: 0x8, addend: 0x0, symName: __ZNKSt3__112basic_stringIcNS_11char_traitsIcEENS_9allocatorIcEEE15__get_long_sizeB8ue170006Ev, symObjAddr: 0x1B04, symBinAddr: 0x100005B88, symSize: 0x28 }
  - { offsetInCU: 0x11BCA, offset: 0x2A36A, size: 0x8, addend: 0x0, symName: __ZNKSt3__112basic_stringIcNS_11char_traitsIcEENS_9allocatorIcEEE16__get_short_sizeB8ue170006Ev, symObjAddr: 0x1B2C, symBinAddr: 0x100005BB0, symSize: 0x34 }
  - { offsetInCU: 0x11BF0, offset: 0x2A390, size: 0x8, addend: 0x0, symName: __ZNSt3__112basic_stringIcNS_11char_traitsIcEENS_9allocatorIcEEEC2B8ue170006EOS5_, symObjAddr: 0x1B60, symBinAddr: 0x100005BE4, symSize: 0x50 }
  - { offsetInCU: 0x11C29, offset: 0x2A3C9, size: 0x8, addend: 0x0, symName: __ZNSt3__112basic_stringIcNS_11char_traitsIcEENS_9allocatorIcEEE14__default_initB8ue170006Ev, symObjAddr: 0x1BB0, symBinAddr: 0x100005C34, symSize: 0x40 }
  - { offsetInCU: 0x11C4F, offset: 0x2A3EF, size: 0x8, addend: 0x0, symName: __ZNSt3__117__compressed_pairINS_12basic_stringIcNS_11char_traitsIcEENS_9allocatorIcEEE5__repES5_E5firstB8ue170006Ev, symObjAddr: 0x1BF0, symBinAddr: 0x100005C74, symSize: 0x24 }
  - { offsetInCU: 0x11C75, offset: 0x2A415, size: 0x8, addend: 0x0, symName: __ZNSt3__122__compressed_pair_elemINS_12basic_stringIcNS_11char_traitsIcEENS_9allocatorIcEEE5__repELi0ELb0EE5__getB8ue170006Ev, symObjAddr: 0x1C14, symBinAddr: 0x100005C98, symSize: 0x14 }
  - { offsetInCU: 0x11C9B, offset: 0x2A43B, size: 0x8, addend: 0x0, symName: __ZN10ApplesGame8MenuInfoD2Ev, symObjAddr: 0x1C28, symBinAddr: 0x100005CAC, symSize: 0x38 }
  - { offsetInCU: 0x11CC7, offset: 0x2A467, size: 0x8, addend: 0x0, symName: __ZN2sf4TextD1Ev, symObjAddr: 0x1C60, symBinAddr: 0x100005CE4, symSize: 0x2C }
  - { offsetInCU: 0x11CF3, offset: 0x2A493, size: 0x8, addend: 0x0, symName: __ZN2sf4TextD2Ev, symObjAddr: 0x1C8C, symBinAddr: 0x100005D10, symSize: 0x74 }
  - { offsetInCU: 0x11D1F, offset: 0x2A4BF, size: 0x8, addend: 0x0, symName: __ZThn8_N2sf4TextD1Ev, symObjAddr: 0x1D00, symBinAddr: 0x100005D84, symSize: 0x1C }
  - { offsetInCU: 0x11D35, offset: 0x2A4D5, size: 0x8, addend: 0x0, symName: __ZN2sf11VertexArrayD1Ev, symObjAddr: 0x1D1C, symBinAddr: 0x100005DA0, symSize: 0x2C }
  - { offsetInCU: 0x11D61, offset: 0x2A501, size: 0x8, addend: 0x0, symName: __ZN2sf11VertexArrayD2Ev, symObjAddr: 0x1D48, symBinAddr: 0x100005DCC, symSize: 0x48 }
  - { offsetInCU: 0x11D8D, offset: 0x2A52D, size: 0x8, addend: 0x0, symName: __ZNSt3__16vectorIN2sf6VertexENS_9allocatorIS2_EEED1B8ue170006Ev, symObjAddr: 0x1D90, symBinAddr: 0x100005E14, symSize: 0x2C }
  - { offsetInCU: 0x11DB7, offset: 0x2A557, size: 0x8, addend: 0x0, symName: __ZNSt3__16vectorIN2sf6VertexENS_9allocatorIS2_EEED2B8ue170006Ev, symObjAddr: 0x1DBC, symBinAddr: 0x100005E40, symSize: 0x44 }
  - { offsetInCU: 0x11DE1, offset: 0x2A581, size: 0x8, addend: 0x0, symName: __ZNSt3__16vectorIN2sf6VertexENS_9allocatorIS2_EEE16__destroy_vectorC1B8ue170006ERS5_, symObjAddr: 0x1E00, symBinAddr: 0x100005E84, symSize: 0x34 }
  - { offsetInCU: 0x11E1A, offset: 0x2A5BA, size: 0x8, addend: 0x0, symName: __ZNSt3__16vectorIN2sf6VertexENS_9allocatorIS2_EEE16__destroy_vectorclB8ue170006Ev, symObjAddr: 0x1E34, symBinAddr: 0x100005EB8, symSize: 0x90 }
  - { offsetInCU: 0x11E40, offset: 0x2A5E0, size: 0x8, addend: 0x0, symName: __ZNSt3__16vectorIN2sf6VertexENS_9allocatorIS2_EEE16__destroy_vectorC2B8ue170006ERS5_, symObjAddr: 0x1EC4, symBinAddr: 0x100005F48, symSize: 0x20 }
  - { offsetInCU: 0x11E79, offset: 0x2A619, size: 0x8, addend: 0x0, symName: __ZNSt3__16vectorIN2sf6VertexENS_9allocatorIS2_EEE7__clearB8ue170006Ev, symObjAddr: 0x1EE4, symBinAddr: 0x100005F68, symSize: 0x28 }
  - { offsetInCU: 0x11E9F, offset: 0x2A63F, size: 0x8, addend: 0x0, symName: __ZNKSt3__16vectorIN2sf6VertexENS_9allocatorIS2_EEE17__annotate_deleteB8ue170006Ev, symObjAddr: 0x1F0C, symBinAddr: 0x100005F90, symSize: 0xD4 }
  - { offsetInCU: 0x11EC5, offset: 0x2A665, size: 0x8, addend: 0x0, symName: __ZNSt3__116allocator_traitsINS_9allocatorIN2sf6VertexEEEE10deallocateB8ue170006ERS4_PS3_m, symObjAddr: 0x1FE0, symBinAddr: 0x100006064, symSize: 0x34 }
  - { offsetInCU: 0x11F07, offset: 0x2A6A7, size: 0x8, addend: 0x0, symName: __ZNSt3__16vectorIN2sf6VertexENS_9allocatorIS2_EEE7__allocB8ue170006Ev, symObjAddr: 0x2014, symBinAddr: 0x100006098, symSize: 0x28 }
  - { offsetInCU: 0x11F2D, offset: 0x2A6CD, size: 0x8, addend: 0x0, symName: __ZNKSt3__16vectorIN2sf6VertexENS_9allocatorIS2_EEE8capacityB8ue170006Ev, symObjAddr: 0x203C, symBinAddr: 0x1000060C0, symSize: 0x40 }
  - { offsetInCU: 0x11F53, offset: 0x2A6F3, size: 0x8, addend: 0x0, symName: __ZNSt3__16vectorIN2sf6VertexENS_9allocatorIS2_EEE22__base_destruct_at_endB8ue170006EPS2_, symObjAddr: 0x207C, symBinAddr: 0x100006100, symSize: 0x8C }
  - { offsetInCU: 0x11F98, offset: 0x2A738, size: 0x8, addend: 0x0, symName: __ZNSt3__116allocator_traitsINS_9allocatorIN2sf6VertexEEEE7destroyB8ue170006IS3_vvEEvRS4_PT_, symObjAddr: 0x2108, symBinAddr: 0x10000618C, symSize: 0x28 }
  - { offsetInCU: 0x11FD3, offset: 0x2A773, size: 0x8, addend: 0x0, symName: __ZNKSt3__16vectorIN2sf6VertexENS_9allocatorIS2_EEE31__annotate_contiguous_containerB8ue170006EPKvS7_S7_S7_, symObjAddr: 0x2178, symBinAddr: 0x1000061FC, symSize: 0x20 }
  - { offsetInCU: 0x12029, offset: 0x2A7C9, size: 0x8, addend: 0x0, symName: __ZNKSt3__16vectorIN2sf6VertexENS_9allocatorIS2_EEE4dataB8ue170006Ev, symObjAddr: 0x2198, symBinAddr: 0x10000621C, symSize: 0x28 }
  - { offsetInCU: 0x1204F, offset: 0x2A7EF, size: 0x8, addend: 0x0, symName: __ZNKSt3__16vectorIN2sf6VertexENS_9allocatorIS2_EEE4sizeB8ue170006Ev, symObjAddr: 0x21C0, symBinAddr: 0x100006244, symSize: 0x28 }
  - { offsetInCU: 0x12075, offset: 0x2A815, size: 0x8, addend: 0x0, symName: __ZNSt3__19allocatorIN2sf6VertexEE10deallocateB8ue170006EPS2_m, symObjAddr: 0x21E8, symBinAddr: 0x10000626C, symSize: 0x44 }
  - { offsetInCU: 0x120B7, offset: 0x2A857, size: 0x8, addend: 0x0, symName: __ZNSt3__117__compressed_pairIPN2sf6VertexENS_9allocatorIS2_EEE6secondB8ue170006Ev, symObjAddr: 0x222C, symBinAddr: 0x1000062B0, symSize: 0x24 }
  - { offsetInCU: 0x120DD, offset: 0x2A87D, size: 0x8, addend: 0x0, symName: __ZNSt3__122__compressed_pair_elemINS_9allocatorIN2sf6VertexEEELi1ELb1EE5__getB8ue170006Ev, symObjAddr: 0x2250, symBinAddr: 0x1000062D4, symSize: 0x14 }
  - { offsetInCU: 0x12103, offset: 0x2A8A3, size: 0x8, addend: 0x0, symName: __ZNKSt3__16vectorIN2sf6VertexENS_9allocatorIS2_EEE9__end_capB8ue170006Ev, symObjAddr: 0x2264, symBinAddr: 0x1000062E8, symSize: 0x28 }
  - { offsetInCU: 0x12129, offset: 0x2A8C9, size: 0x8, addend: 0x0, symName: __ZNKSt3__117__compressed_pairIPN2sf6VertexENS_9allocatorIS2_EEE5firstB8ue170006Ev, symObjAddr: 0x228C, symBinAddr: 0x100006310, symSize: 0x24 }
  - { offsetInCU: 0x1214F, offset: 0x2A8EF, size: 0x8, addend: 0x0, symName: __ZNKSt3__122__compressed_pair_elemIPN2sf6VertexELi0ELb0EE5__getB8ue170006Ev, symObjAddr: 0x22B0, symBinAddr: 0x100006334, symSize: 0x14 }
  - { offsetInCU: 0x12175, offset: 0x2A915, size: 0x8, addend: 0x0, symName: __ZN10ApplesGame9GameStateD2Ev, symObjAddr: 0x22C4, symBinAddr: 0x100006348, symSize: 0x144 }
  - { offsetInCU: 0xF5, offset: 0x2ADE1, size: 0x8, addend: 0x0, symName: __ZN10ApplesGame10InitPlayerERNS_6PlayerE, symObjAddr: 0x0, symBinAddr: 0x10000648C, symSize: 0x114 }
  - { offsetInCU: 0x11D, offset: 0x2AE09, size: 0x8, addend: 0x0, symName: __ZN10ApplesGame8InitGameERNS_9GameStateE, symObjAddr: 0x174, symBinAddr: 0x1000065CC, symSize: 0x430 }
  - { offsetInCU: 0x17E, offset: 0x2AE6A, size: 0x8, addend: 0x0, symName: __ZN10ApplesGame9BubleSortERNS_9GameStateE, symObjAddr: 0x5A4, symBinAddr: 0x1000069FC, symSize: 0x1C8 }
  - { offsetInCU: 0x4A5E, offset: 0x2F74A, size: 0x8, addend: 0x0, symName: __ZN2sf4RectIiEC1Ev, symObjAddr: 0x148, symBinAddr: 0x1000065A0, symSize: 0x2C }
  - { offsetInCU: 0x4A8B, offset: 0x2F777, size: 0x8, addend: 0x0, symName: __ZN2sf4RectIiEC2Ev, symObjAddr: 0x920, symBinAddr: 0x100006BC4, symSize: 0x24 }
  - { offsetInCU: 0x26, offset: 0x2F7D7, size: 0x8, addend: 0x0, symName: __ZN10ApplesGame21GetRandomSizeForRocksEff, symObjAddr: 0x0, symBinAddr: 0x100006BE8, symSize: 0x44 }
  - { offsetInCU: 0x4FA, offset: 0x2FCAB, size: 0x8, addend: 0x0, symName: __ZN10ApplesGame21GetRandomSizeForRocksEff, symObjAddr: 0x0, symBinAddr: 0x100006BE8, symSize: 0x44 }
  - { offsetInCU: 0x26, offset: 0x2FD0D, size: 0x8, addend: 0x0, symName: __ZN10ApplesGame25GetRandomPositionInScreenEff, symObjAddr: 0x0, symBinAddr: 0x100006C2C, symSize: 0x64 }
  - { offsetInCU: 0x2943, offset: 0x3262A, size: 0x8, addend: 0x0, symName: __ZN10ApplesGame25GetRandomPositionInScreenEff, symObjAddr: 0x0, symBinAddr: 0x100006C2C, symSize: 0x64 }
  - { offsetInCU: 0x298C, offset: 0x32673, size: 0x8, addend: 0x0, symName: __ZN10ApplesGame13SetSpriteSizeERN2sf6SpriteEff, symObjAddr: 0x64, symBinAddr: 0x100006C90, symSize: 0x70 }
  - { offsetInCU: 0x29EC, offset: 0x326D3, size: 0x8, addend: 0x0, symName: __ZN10ApplesGame23SetSpriteRelativeOriginERN2sf6SpriteEff, symObjAddr: 0x110, symBinAddr: 0x100006D00, symSize: 0x60 }
  - { offsetInCU: 0x2A3E, offset: 0x32725, size: 0x8, addend: 0x0, symName: __ZN10ApplesGame12RandomNumberEi, symObjAddr: 0x170, symBinAddr: 0x100006D60, symSize: 0x38 }
  - { offsetInCU: 0xC4, offset: 0x3282A, size: 0x8, addend: 0x0, symName: __ZN10ApplesGame16END_GAME_MESSAGEE, symObjAddr: 0x4DA8, symBinAddr: 0x100010000, symSize: 0x0 }
  - { offsetInCU: 0xDE, offset: 0x32844, size: 0x8, addend: 0x0, symName: __ZN10ApplesGame12INFO_MESSAGEE, symObjAddr: 0x4DB0, symBinAddr: 0x100010008, symSize: 0x0 }
  - { offsetInCU: 0xF8, offset: 0x3285E, size: 0x8, addend: 0x0, symName: __ZN10ApplesGame12MENU_MESSAGEE, symObjAddr: 0x4DB8, symBinAddr: 0x100010010, symSize: 0x0 }
  - { offsetInCU: 0x106, offset: 0x3286C, size: 0x8, addend: 0x0, symName: __ZN10ApplesGame8ShowInfoERN2sf4FontE, symObjAddr: 0x1478, symBinAddr: 0x10000817C, symSize: 0x16C }
  - { offsetInCU: 0x150, offset: 0x328B6, size: 0x8, addend: 0x0, symName: __ZN10ApplesGame7EndGameERN2sf12RenderWindowERNS0_4FontERNS0_5EventERbRNS_9GameStateE, symObjAddr: 0x1618, symBinAddr: 0x10000831C, symSize: 0x61C }
  - { offsetInCU: 0x208, offset: 0x3296E, size: 0x8, addend: 0x0, symName: __ZN10ApplesGame15GameSettingMenuERNS_9GameStateERN2sf5EventERNS2_12RenderWindowERNS2_4FontERb, symObjAddr: 0x1CF0, symBinAddr: 0x100008994, symSize: 0x2F4 }
  - { offsetInCU: 0x2D0, offset: 0x32A36, size: 0x8, addend: 0x0, symName: __ZN10ApplesGame11WictoryMenuERNS_9GameStateERN2sf4FontERNS2_12RenderWindowERNS2_5EventE, symObjAddr: 0x1FE4, symBinAddr: 0x100008C88, symSize: 0x294 }
  - { offsetInCU: 0x3B4, offset: 0x32B1A, size: 0x8, addend: 0x0, symName: __ZL10allSetings, symObjAddr: 0x4AC8, symBinAddr: 0x10000BC70, symSize: 0x0 }
  - { offsetInCU: 0xC558, offset: 0x3ECBE, size: 0x8, addend: 0x0, symName: __ZNSt3__1eqB8ue170006IcNS_11char_traitsIcEENS_9allocatorIcEEEEbRKNS_12basic_stringIT_T0_T1_EEPKS6_, symObjAddr: 0x1C68, symBinAddr: 0x100008938, symSize: 0x5C }
  - { offsetInCU: 0xC5B0, offset: 0x3ED16, size: 0x8, addend: 0x0, symName: __ZNSt3__122__make_exception_guardB8ue170006INS_6vectorIN2sf6VertexENS_9allocatorIS3_EEE16__destroy_vectorEEENS_28__exception_guard_exceptionsIT_EES9_, symObjAddr: 0x2FAC, symBinAddr: 0x100009488, symSize: 0x40 }
  - { offsetInCU: 0xC5E6, offset: 0x3ED4C, size: 0x8, addend: 0x0, symName: __ZNSt3__119__allocate_at_leastB8ue170006INS_9allocatorIN2sf6VertexEEEEENS_19__allocation_resultINS_16allocator_traitsIT_E7pointerEEERS7_m, symObjAddr: 0x3248, symBinAddr: 0x100009724, symSize: 0x40 }
  - { offsetInCU: 0xC62A, offset: 0x3ED90, size: 0x8, addend: 0x0, symName: __ZNSt3__13minB8ue170006ImEERKT_S3_S3_, symObjAddr: 0x3378, symBinAddr: 0x100009854, symSize: 0x2C }
  - { offsetInCU: 0xC858, offset: 0x3EFBE, size: 0x8, addend: 0x0, symName: __ZNSt3__13minB8ue170006ImNS_6__lessIvvEEEERKT_S5_S5_T0_, symObjAddr: 0x33E0, symBinAddr: 0x1000098BC, symSize: 0x54 }
  - { offsetInCU: 0xCAE7, offset: 0x3F24D, size: 0x8, addend: 0x0, symName: __ZNSt3__120__throw_length_errorB8ue170006EPKc, symObjAddr: 0x348C, symBinAddr: 0x100009968, symSize: 0x64 }
  - { offsetInCU: 0xCB12, offset: 0x3F278, size: 0x8, addend: 0x0, symName: __ZNSt3__117__libcpp_allocateB8ue170006Emm, symObjAddr: 0x3600, symBinAddr: 0x100009ADC, symSize: 0x60 }
  - { offsetInCU: 0xCB6D, offset: 0x3F2D3, size: 0x8, addend: 0x0, symName: __ZNSt3__121__libcpp_operator_newB8ue170006IJmSt11align_val_tEEEPvDpT_, symObjAddr: 0x3660, symBinAddr: 0x100009B3C, symSize: 0x2C }
  - { offsetInCU: 0xCBBB, offset: 0x3F321, size: 0x8, addend: 0x0, symName: __ZNSt3__121__libcpp_operator_newB8ue170006IJmEEEPvDpT_, symObjAddr: 0x368C, symBinAddr: 0x100009B68, symSize: 0x24 }
  - { offsetInCU: 0xCBF5, offset: 0x3F35B, size: 0x8, addend: 0x0, symName: __ZNSt3__130__uninitialized_allocator_copyB8ue170006INS_9allocatorIN2sf6VertexEEEPS3_S5_S5_EET2_RT_T0_T1_S6_, symObjAddr: 0x3724, symBinAddr: 0x100009C00, symSize: 0x80 }
  - { offsetInCU: 0xCC94, offset: 0x3F3FA, size: 0x8, addend: 0x0, symName: __ZNSt3__114__unwrap_rangeB8ue170006IPN2sf6VertexES3_EEDaT_T0_, symObjAddr: 0x381C, symBinAddr: 0x100009CF8, symSize: 0x3C }
  - { offsetInCU: 0xCCE1, offset: 0x3F447, size: 0x8, addend: 0x0, symName: __ZNSt3__135__uninitialized_allocator_copy_implB8ue170006INS_9allocatorIN2sf6VertexEEES3_S3_S3_LPv0EEEPT2_RT_PT0_SB_S7_, symObjAddr: 0x3858, symBinAddr: 0x100009D34, symSize: 0x38 }
  - { offsetInCU: 0xCD64, offset: 0x3F4CA, size: 0x8, addend: 0x0, symName: __ZNSt3__113__unwrap_iterB8ue170006IPN2sf6VertexENS_18__unwrap_iter_implIS3_Lb1EEELi0EEEDTclsrT0_8__unwrapclsr3stdE7declvalIT_EEEES7_, symObjAddr: 0x3890, symBinAddr: 0x100009D6C, symSize: 0x24 }
  - { offsetInCU: 0xCDA9, offset: 0x3F50F, size: 0x8, addend: 0x0, symName: __ZNSt3__113__rewrap_iterB8ue170006IPN2sf6VertexES3_NS_18__unwrap_iter_implIS3_Lb1EEEEET_S6_T0_, symObjAddr: 0x38B4, symBinAddr: 0x100009D90, symSize: 0x3C }
  - { offsetInCU: 0xCF4C, offset: 0x3F6B2, size: 0x8, addend: 0x0, symName: __ZNSt3__14copyB8ue170006IPN2sf6VertexES3_EET0_T_S5_S4_, symObjAddr: 0x39B8, symBinAddr: 0x100009E94, symSize: 0x40 }
  - { offsetInCU: 0xCFA7, offset: 0x3F70D, size: 0x8, addend: 0x0, symName: __ZNSt3__16__copyB8ue170006INS_17_ClassicAlgPolicyEPN2sf6VertexES4_S4_EENS_4pairIT0_T2_EES6_T1_S7_, symObjAddr: 0x39F8, symBinAddr: 0x100009ED4, symSize: 0x44 }
  - { offsetInCU: 0xD014, offset: 0x3F77A, size: 0x8, addend: 0x0, symName: __ZNSt3__123__dispatch_copy_or_moveB8ue170006INS_17_ClassicAlgPolicyENS_11__copy_loopIS1_EENS_14__copy_trivialEPN2sf6VertexES7_S7_EENS_4pairIT2_T4_EES9_T3_SA_, symObjAddr: 0x3A3C, symBinAddr: 0x100009F18, symSize: 0x44 }
  - { offsetInCU: 0xD093, offset: 0x3F7F9, size: 0x8, addend: 0x0, symName: __ZNSt3__121__unwrap_and_dispatchB8ue170006INS_10__overloadINS_11__copy_loopINS_17_ClassicAlgPolicyEEENS_14__copy_trivialEEEPN2sf6VertexES9_S9_Li0EEENS_4pairIT0_T2_EESB_T1_SC_, symObjAddr: 0x3A80, symBinAddr: 0x100009F5C, symSize: 0xB4 }
  - { offsetInCU: 0xD168, offset: 0x3F8CE, size: 0x8, addend: 0x0, symName: __ZNSt3__19make_pairB8ue170006IPN2sf6VertexES3_EENS_4pairINS_18__unwrap_ref_decayIT_E4typeENS5_IT0_E4typeEEEOS6_OS9_, symObjAddr: 0x3B7C, symBinAddr: 0x10000A058, symSize: 0x38 }
  - { offsetInCU: 0xD1B7, offset: 0x3F91D, size: 0x8, addend: 0x0, symName: __ZNSt3__114__rewrap_rangeB8ue170006IPN2sf6VertexES3_S3_EET0_S4_T1_, symObjAddr: 0x3BB4, symBinAddr: 0x10000A090, symSize: 0x2C }
  - { offsetInCU: 0xD20D, offset: 0x3F973, size: 0x8, addend: 0x0, symName: __ZNSt3__119__copy_trivial_implB8ue170006IN2sf6VertexES2_EENS_4pairIPT_PT0_EES5_S5_S7_, symObjAddr: 0x3BE0, symBinAddr: 0x10000A0BC, symSize: 0x88 }
  - { offsetInCU: 0xD276, offset: 0x3F9DC, size: 0x8, addend: 0x0, symName: __ZNSt3__119__constexpr_memmoveB8ue170006IN2sf6VertexES2_Li0EEEPT_S4_PT0_NS_15__element_countE, symObjAddr: 0x3C68, symBinAddr: 0x10000A144, symSize: 0x68 }
  - { offsetInCU: 0xD2E5, offset: 0x3FA4B, size: 0x8, addend: 0x0, symName: __ZNSt3__19make_pairB8ue170006IRPN2sf6VertexES3_EENS_4pairINS_18__unwrap_ref_decayIT_E4typeENS6_IT0_E4typeEEEOS7_OSA_, symObjAddr: 0x3CD0, symBinAddr: 0x10000A1AC, symSize: 0x38 }
  - { offsetInCU: 0xD387, offset: 0x3FAED, size: 0x8, addend: 0x0, symName: __ZNSt3__1eqB8ue170006IcNS_11char_traitsIcEEEEbNS_17basic_string_viewIT_T0_EES6_, symObjAddr: 0x4030, symBinAddr: 0x10000A364, symSize: 0xB0 }
  - { offsetInCU: 0xD3D6, offset: 0x3FB3C, size: 0x8, addend: 0x0, symName: __ZNSt3__128__char_traits_length_checkedB8ue170006INS_11char_traitsIcEEEEmPKNT_9char_typeE, symObjAddr: 0x45C4, symBinAddr: 0x10000A6E4, symSize: 0x24 }
  - { offsetInCU: 0xEE08, offset: 0x4156E, size: 0x8, addend: 0x0, symName: __ZSt28__throw_bad_array_new_lengthB8ue170006v, symObjAddr: 0x35CC, symBinAddr: 0x100009AA8, symSize: 0x34 }
  - { offsetInCU: 0x110B4, offset: 0x4381A, size: 0x8, addend: 0x0, symName: __Z14DrawBorderMenuN10ApplesGame8Vector2DERN2sf12RenderWindowE, symObjAddr: 0x0, symBinAddr: 0x100006D98, symSize: 0x3C4 }
  - { offsetInCU: 0x1116F, offset: 0x438D5, size: 0x8, addend: 0x0, symName: __Z8DrawTextN2sf6StringERNS_4FontEN10ApplesGame8Vector2DERNS_12RenderWindowE, symObjAddr: 0x42C, symBinAddr: 0x10000715C, symSize: 0xF4 }
  - { offsetInCU: 0x114C3, offset: 0x43C29, size: 0x8, addend: 0x0, symName: __Z16SelectionButtonsRA2_A4_bN10ApplesGame8Vector2DERN2sf12RenderWindowERNS4_5EventERNS2_9GameStateE, symObjAddr: 0x54C, symBinAddr: 0x100007250, symSize: 0x87C }
  - { offsetInCU: 0x11590, offset: 0x43CF6, size: 0x8, addend: 0x0, symName: __Z7HotKeysRN10ApplesGame9GameStateERN2sf5EventE, symObjAddr: 0xDC8, symBinAddr: 0x100007ACC, symSize: 0x348 }
  - { offsetInCU: 0x115C6, offset: 0x43D2C, size: 0x8, addend: 0x0, symName: __Z10MoveCursorRA2_A4_bRN2sf5EventE, symObjAddr: 0x1110, symBinAddr: 0x100007E14, symSize: 0x368 }
  - { offsetInCU: 0x1163A, offset: 0x43DA0, size: 0x8, addend: 0x0, symName: __ZN2sf4TextC1ERKS0_, symObjAddr: 0x15E4, symBinAddr: 0x1000082E8, symSize: 0x34 }
  - { offsetInCU: 0x11674, offset: 0x43DDA, size: 0x8, addend: 0x0, symName: __ZN2sf4TextC2ERKS0_, symObjAddr: 0x2A40, symBinAddr: 0x100008F1C, symSize: 0x168 }
  - { offsetInCU: 0x116A9, offset: 0x43E0F, size: 0x8, addend: 0x0, symName: __ZN2sf8DrawableC2ERKS0_, symObjAddr: 0x2BA8, symBinAddr: 0x100009084, symSize: 0x28 }
  - { offsetInCU: 0x116E3, offset: 0x43E49, size: 0x8, addend: 0x0, symName: __ZN2sf13TransformableC2ERKS0_, symObjAddr: 0x2BD0, symBinAddr: 0x1000090AC, symSize: 0x50 }
  - { offsetInCU: 0x1171D, offset: 0x43E83, size: 0x8, addend: 0x0, symName: __ZN2sf11VertexArrayC1ERKS0_, symObjAddr: 0x2C20, symBinAddr: 0x1000090FC, symSize: 0x34 }
  - { offsetInCU: 0x11752, offset: 0x43EB8, size: 0x8, addend: 0x0, symName: __ZN2sf8DrawableD1Ev, symObjAddr: 0x2C54, symBinAddr: 0x100009130, symSize: 0x14 }
  - { offsetInCU: 0x1177C, offset: 0x43EE2, size: 0x8, addend: 0x0, symName: __ZN2sf8DrawableD0Ev, symObjAddr: 0x2C68, symBinAddr: 0x100009144, symSize: 0xC }
  - { offsetInCU: 0x117A6, offset: 0x43F0C, size: 0x8, addend: 0x0, symName: __ZN2sf11VertexArrayC2ERKS0_, symObjAddr: 0x2C74, symBinAddr: 0x100009150, symSize: 0x94 }
  - { offsetInCU: 0x117DB, offset: 0x43F41, size: 0x8, addend: 0x0, symName: __ZNSt3__16vectorIN2sf6VertexENS_9allocatorIS2_EEEC1ERKS5_, symObjAddr: 0x2D08, symBinAddr: 0x1000091E4, symSize: 0x34 }
  - { offsetInCU: 0x11816, offset: 0x43F7C, size: 0x8, addend: 0x0, symName: __ZNSt3__16vectorIN2sf6VertexENS_9allocatorIS2_EEEC2ERKS5_, symObjAddr: 0x2D3C, symBinAddr: 0x100009218, symSize: 0x94 }
  - { offsetInCU: 0x1185B, offset: 0x43FC1, size: 0x8, addend: 0x0, symName: __ZNSt3__116allocator_traitsINS_9allocatorIN2sf6VertexEEEE37select_on_container_copy_constructionB8ue170006IS4_vvEES4_RKS4_, symObjAddr: 0x2DD0, symBinAddr: 0x1000092AC, symSize: 0x10 }
  - { offsetInCU: 0x1188A, offset: 0x43FF0, size: 0x8, addend: 0x0, symName: __ZNKSt3__16vectorIN2sf6VertexENS_9allocatorIS2_EEE7__allocB8ue170006Ev, symObjAddr: 0x2DE0, symBinAddr: 0x1000092BC, symSize: 0x28 }
  - { offsetInCU: 0x118BA, offset: 0x44020, size: 0x8, addend: 0x0, symName: __ZNSt3__117__compressed_pairIPN2sf6VertexENS_9allocatorIS2_EEEC1B8ue170006IDnS5_EEOT_OT0_, symObjAddr: 0x2E08, symBinAddr: 0x1000092E4, symSize: 0x3C }
  - { offsetInCU: 0x11912, offset: 0x44078, size: 0x8, addend: 0x0, symName: __ZNSt3__16vectorIN2sf6VertexENS_9allocatorIS2_EEE16__init_with_sizeB8ue170006IPS2_S7_EEvT_T0_m, symObjAddr: 0x2E44, symBinAddr: 0x100009320, symSize: 0xB8 }
  - { offsetInCU: 0x11987, offset: 0x440ED, size: 0x8, addend: 0x0, symName: __ZNKSt3__117__compressed_pairIPN2sf6VertexENS_9allocatorIS2_EEE6secondB8ue170006Ev, symObjAddr: 0x2EFC, symBinAddr: 0x1000093D8, symSize: 0x24 }
  - { offsetInCU: 0x119AD, offset: 0x44113, size: 0x8, addend: 0x0, symName: __ZNKSt3__122__compressed_pair_elemINS_9allocatorIN2sf6VertexEEELi1ELb1EE5__getB8ue170006Ev, symObjAddr: 0x2F20, symBinAddr: 0x1000093FC, symSize: 0x14 }
  - { offsetInCU: 0x119D3, offset: 0x44139, size: 0x8, addend: 0x0, symName: __ZNSt3__117__compressed_pairIPN2sf6VertexENS_9allocatorIS2_EEEC2B8ue170006IDnS5_EEOT_OT0_, symObjAddr: 0x2F34, symBinAddr: 0x100009410, symSize: 0x44 }
  - { offsetInCU: 0x11A2B, offset: 0x44191, size: 0x8, addend: 0x0, symName: __ZNSt3__122__compressed_pair_elemIPN2sf6VertexELi0ELb0EEC2B8ue170006IDnvEEOT_, symObjAddr: 0x2F78, symBinAddr: 0x100009454, symSize: 0x1C }
  - { offsetInCU: 0x11A6D, offset: 0x441D3, size: 0x8, addend: 0x0, symName: __ZNSt3__122__compressed_pair_elemINS_9allocatorIN2sf6VertexEEELi1ELb1EEC2B8ue170006IS4_vEEOT_, symObjAddr: 0x2F94, symBinAddr: 0x100009470, symSize: 0x18 }
  - { offsetInCU: 0x11AAF, offset: 0x44215, size: 0x8, addend: 0x0, symName: __ZNSt3__16vectorIN2sf6VertexENS_9allocatorIS2_EEE11__vallocateB8ue170006Em, symObjAddr: 0x2FEC, symBinAddr: 0x1000094C8, symSize: 0xB4 }
  - { offsetInCU: 0x11AF4, offset: 0x4425A, size: 0x8, addend: 0x0, symName: __ZNSt3__16vectorIN2sf6VertexENS_9allocatorIS2_EEE18__construct_at_endIPS2_S7_EEvT_T0_m, symObjAddr: 0x30A0, symBinAddr: 0x10000957C, symSize: 0x8C }
  - { offsetInCU: 0x11B6B, offset: 0x442D1, size: 0x8, addend: 0x0, symName: __ZNSt3__128__exception_guard_exceptionsINS_6vectorIN2sf6VertexENS_9allocatorIS3_EEE16__destroy_vectorEE10__completeB8ue170006Ev, symObjAddr: 0x312C, symBinAddr: 0x100009608, symSize: 0x1C }
  - { offsetInCU: 0x11B91, offset: 0x442F7, size: 0x8, addend: 0x0, symName: __ZNSt3__128__exception_guard_exceptionsINS_6vectorIN2sf6VertexENS_9allocatorIS3_EEE16__destroy_vectorEED1B8ue170006Ev, symObjAddr: 0x3148, symBinAddr: 0x100009624, symSize: 0x2C }
  - { offsetInCU: 0x11BBB, offset: 0x44321, size: 0x8, addend: 0x0, symName: __ZNSt3__128__exception_guard_exceptionsINS_6vectorIN2sf6VertexENS_9allocatorIS3_EEE16__destroy_vectorEEC1B8ue170006ES7_, symObjAddr: 0x3174, symBinAddr: 0x100009650, symSize: 0x34 }
  - { offsetInCU: 0x11BF3, offset: 0x44359, size: 0x8, addend: 0x0, symName: __ZNSt3__128__exception_guard_exceptionsINS_6vectorIN2sf6VertexENS_9allocatorIS3_EEE16__destroy_vectorEEC2B8ue170006ES7_, symObjAddr: 0x31A8, symBinAddr: 0x100009684, symSize: 0x24 }
  - { offsetInCU: 0x11C2B, offset: 0x44391, size: 0x8, addend: 0x0, symName: __ZNKSt3__16vectorIN2sf6VertexENS_9allocatorIS2_EEE8max_sizeEv, symObjAddr: 0x31CC, symBinAddr: 0x1000096A8, symSize: 0x60 }
  - { offsetInCU: 0x11C53, offset: 0x443B9, size: 0x8, addend: 0x0, symName: __ZNKSt3__16vectorIN2sf6VertexENS_9allocatorIS2_EEE20__throw_length_errorB8ue170006Ev, symObjAddr: 0x322C, symBinAddr: 0x100009708, symSize: 0x1C }
  - { offsetInCU: 0x11C79, offset: 0x443DF, size: 0x8, addend: 0x0, symName: __ZNSt3__16vectorIN2sf6VertexENS_9allocatorIS2_EEE9__end_capB8ue170006Ev, symObjAddr: 0x3288, symBinAddr: 0x100009764, symSize: 0x28 }
  - { offsetInCU: 0x11C9F, offset: 0x44405, size: 0x8, addend: 0x0, symName: __ZNKSt3__16vectorIN2sf6VertexENS_9allocatorIS2_EEE14__annotate_newB8ue170006Em, symObjAddr: 0x32B0, symBinAddr: 0x10000978C, symSize: 0xC8 }
  - { offsetInCU: 0x11CD4, offset: 0x4443A, size: 0x8, addend: 0x0, symName: __ZNSt3__116allocator_traitsINS_9allocatorIN2sf6VertexEEEE8max_sizeB8ue170006IS4_vvEEmRKS4_, symObjAddr: 0x33A4, symBinAddr: 0x100009880, symSize: 0x28 }
  - { offsetInCU: 0x11D00, offset: 0x44466, size: 0x8, addend: 0x0, symName: __ZNSt3__114numeric_limitsIlE3maxB8ue170006Ev, symObjAddr: 0x33CC, symBinAddr: 0x1000098A8, symSize: 0x14 }
  - { offsetInCU: 0x11D1E, offset: 0x44484, size: 0x8, addend: 0x0, symName: __ZNKSt3__16__lessIvvEclB8ue170006ImmEEbRKT_RKT0_, symObjAddr: 0x3434, symBinAddr: 0x100009910, symSize: 0x34 }
  - { offsetInCU: 0x11D72, offset: 0x444D8, size: 0x8, addend: 0x0, symName: __ZNSt3__114numeric_limitsImE3maxB8ue170006Ev, symObjAddr: 0x3468, symBinAddr: 0x100009944, symSize: 0x14 }
  - { offsetInCU: 0x11D86, offset: 0x444EC, size: 0x8, addend: 0x0, symName: __ZNSt3__123__libcpp_numeric_limitsImLb1EE3maxB8ue170006Ev, symObjAddr: 0x347C, symBinAddr: 0x100009958, symSize: 0x8 }
  - { offsetInCU: 0x11D9A, offset: 0x44500, size: 0x8, addend: 0x0, symName: __ZNSt3__123__libcpp_numeric_limitsIlLb1EE3maxB8ue170006Ev, symObjAddr: 0x3484, symBinAddr: 0x100009960, symSize: 0x8 }
  - { offsetInCU: 0x11DAE, offset: 0x44514, size: 0x8, addend: 0x0, symName: __ZNSt12length_errorC1B8ue170006EPKc, symObjAddr: 0x34F0, symBinAddr: 0x1000099CC, symSize: 0x34 }
  - { offsetInCU: 0x11DE6, offset: 0x4454C, size: 0x8, addend: 0x0, symName: __ZNSt12length_errorC2B8ue170006EPKc, symObjAddr: 0x3524, symBinAddr: 0x100009A00, symSize: 0x4C }
  - { offsetInCU: 0x11E1E, offset: 0x44584, size: 0x8, addend: 0x0, symName: __ZNSt3__19allocatorIN2sf6VertexEE8allocateB8ue170006Em, symObjAddr: 0x3570, symBinAddr: 0x100009A4C, symSize: 0x5C }
  - { offsetInCU: 0x11E52, offset: 0x445B8, size: 0x8, addend: 0x0, symName: __ZNSt3__117__compressed_pairIPN2sf6VertexENS_9allocatorIS2_EEE5firstB8ue170006Ev, symObjAddr: 0x36B0, symBinAddr: 0x100009B8C, symSize: 0x24 }
  - { offsetInCU: 0x11E78, offset: 0x445DE, size: 0x8, addend: 0x0, symName: __ZNSt3__122__compressed_pair_elemIPN2sf6VertexELi0ELb0EE5__getB8ue170006Ev, symObjAddr: 0x36D4, symBinAddr: 0x100009BB0, symSize: 0x14 }
  - { offsetInCU: 0x11EB7, offset: 0x4461D, size: 0x8, addend: 0x0, symName: __ZNSt3__16vectorIN2sf6VertexENS_9allocatorIS2_EEE21_ConstructTransactionC1B8ue170006ERS5_m, symObjAddr: 0x36E8, symBinAddr: 0x100009BC4, symSize: 0x3C }
  - { offsetInCU: 0x11EFF, offset: 0x44665, size: 0x8, addend: 0x0, symName: __ZNSt3__16vectorIN2sf6VertexENS_9allocatorIS2_EEE21_ConstructTransactionD1B8ue170006Ev, symObjAddr: 0x37A4, symBinAddr: 0x100009C80, symSize: 0x2C }
  - { offsetInCU: 0x11F29, offset: 0x4468F, size: 0x8, addend: 0x0, symName: __ZNSt3__16vectorIN2sf6VertexENS_9allocatorIS2_EEE21_ConstructTransactionC2B8ue170006ERS5_m, symObjAddr: 0x37D0, symBinAddr: 0x100009CAC, symSize: 0x4C }
  - { offsetInCU: 0x11F8A, offset: 0x446F0, size: 0x8, addend: 0x0, symName: __ZNSt3__119__unwrap_range_implIPN2sf6VertexES3_E8__unwrapB8ue170006ES3_S3_, symObjAddr: 0x38F0, symBinAddr: 0x100009DCC, symSize: 0x58 }
  - { offsetInCU: 0x11FC0, offset: 0x44726, size: 0x8, addend: 0x0, symName: __ZNSt3__14pairIPN2sf6VertexES3_EC1B8ue170006IS3_S3_LPv0EEEOT_OT0_, symObjAddr: 0x3948, symBinAddr: 0x100009E24, symSize: 0x3C }
  - { offsetInCU: 0x1201F, offset: 0x44785, size: 0x8, addend: 0x0, symName: __ZNSt3__14pairIPN2sf6VertexES3_EC2B8ue170006IS3_S3_LPv0EEEOT_OT0_, symObjAddr: 0x3984, symBinAddr: 0x100009E60, symSize: 0x34 }
  - { offsetInCU: 0x12088, offset: 0x447EE, size: 0x8, addend: 0x0, symName: __ZNKSt3__114__copy_trivialclB8ue170006IN2sf6VertexES3_Li0EEENS_4pairIPT_PT0_EES6_S6_S8_, symObjAddr: 0x3B34, symBinAddr: 0x10000A010, symSize: 0x48 }
  - { offsetInCU: 0x120F0, offset: 0x44856, size: 0x8, addend: 0x0, symName: __ZNSt3__14pairIPN2sf6VertexES3_EC1B8ue170006IRS3_S3_LPv0EEEOT_OT0_, symObjAddr: 0x3D08, symBinAddr: 0x10000A1E4, symSize: 0x3C }
  - { offsetInCU: 0x1214F, offset: 0x448B5, size: 0x8, addend: 0x0, symName: __ZNSt3__14pairIPN2sf6VertexES3_EC2B8ue170006IRS3_S3_LPv0EEEOT_OT0_, symObjAddr: 0x3D44, symBinAddr: 0x10000A220, symSize: 0x34 }
  - { offsetInCU: 0x121AE, offset: 0x44914, size: 0x8, addend: 0x0, symName: __ZNSt3__119__unwrap_range_implIPN2sf6VertexES3_E8__rewrapB8ue170006ES3_S3_, symObjAddr: 0x3D78, symBinAddr: 0x10000A254, symSize: 0x2C }
  - { offsetInCU: 0x121DF, offset: 0x44945, size: 0x8, addend: 0x0, symName: __ZNSt3__118__unwrap_iter_implIPN2sf6VertexELb1EE8__unwrapB8ue170006ES3_, symObjAddr: 0x3DA4, symBinAddr: 0x10000A280, symSize: 0x24 }
  - { offsetInCU: 0x12202, offset: 0x44968, size: 0x8, addend: 0x0, symName: __ZNSt3__118__unwrap_iter_implIPN2sf6VertexELb1EE8__rewrapB8ue170006ES3_S3_, symObjAddr: 0x3DC8, symBinAddr: 0x10000A2A4, symSize: 0x58 }
  - { offsetInCU: 0x12233, offset: 0x44999, size: 0x8, addend: 0x0, symName: __ZNSt3__16vectorIN2sf6VertexENS_9allocatorIS2_EEE21_ConstructTransactionD2B8ue170006Ev, symObjAddr: 0x3E20, symBinAddr: 0x10000A2FC, symSize: 0x20 }
  - { offsetInCU: 0x1225D, offset: 0x449C3, size: 0x8, addend: 0x0, symName: __ZNSt3__128__exception_guard_exceptionsINS_6vectorIN2sf6VertexENS_9allocatorIS3_EEE16__destroy_vectorEED2B8ue170006Ev, symObjAddr: 0x3E40, symBinAddr: 0x10000A31C, symSize: 0x48 }
  - { offsetInCU: 0x12287, offset: 0x449ED, size: 0x8, addend: 0x0, symName: __ZNKSt3__112basic_stringIcNS_11char_traitsIcEENS_9allocatorIcEEEcvNS_17basic_string_viewIcS2_EEB8ue170006Ev, symObjAddr: 0x40E0, symBinAddr: 0x10000A414, symSize: 0x50 }
  - { offsetInCU: 0x122AD, offset: 0x44A13, size: 0x8, addend: 0x0, symName: __ZNSt3__117basic_string_viewIcNS_11char_traitsIcEEEC1B8ue170006EPKc, symObjAddr: 0x4130, symBinAddr: 0x10000A464, symSize: 0x34 }
  - { offsetInCU: 0x122E6, offset: 0x44A4C, size: 0x8, addend: 0x0, symName: __ZNKSt3__117basic_string_viewIcNS_11char_traitsIcEEE4sizeB8ue170006Ev, symObjAddr: 0x4164, symBinAddr: 0x10000A498, symSize: 0x18 }
  - { offsetInCU: 0x1230C, offset: 0x44A72, size: 0x8, addend: 0x0, symName: __ZNKSt3__117basic_string_viewIcNS_11char_traitsIcEEE7compareES3_, symObjAddr: 0x417C, symBinAddr: 0x10000A4B0, symSize: 0x13C }
  - { offsetInCU: 0x12361, offset: 0x44AC7, size: 0x8, addend: 0x0, symName: __ZNSt3__111char_traitsIcE7compareB8ue170006EPKcS3_m, symObjAddr: 0x42B8, symBinAddr: 0x10000A5EC, symSize: 0x34 }
  - { offsetInCU: 0x123A0, offset: 0x44B06, size: 0x8, addend: 0x0, symName: __ZNKSt3__117basic_string_viewIcNS_11char_traitsIcEEE4dataB8ue170006Ev, symObjAddr: 0x42EC, symBinAddr: 0x10000A620, symSize: 0x18 }
  - { offsetInCU: 0x123C6, offset: 0x44B2C, size: 0x8, addend: 0x0, symName: __ZNSt3__117basic_string_viewIcNS_11char_traitsIcEEEC1B8ue170006EPKcm, symObjAddr: 0x4380, symBinAddr: 0x10000A638, symSize: 0x3C }
  - { offsetInCU: 0x1240E, offset: 0x44B74, size: 0x8, addend: 0x0, symName: __ZNSt3__117basic_string_viewIcNS_11char_traitsIcEEEC2B8ue170006EPKcm, symObjAddr: 0x4554, symBinAddr: 0x10000A674, symSize: 0x2C }
  - { offsetInCU: 0x12456, offset: 0x44BBC, size: 0x8, addend: 0x0, symName: __ZNSt3__117basic_string_viewIcNS_11char_traitsIcEEEC2B8ue170006EPKc, symObjAddr: 0x4580, symBinAddr: 0x10000A6A0, symSize: 0x44 }
  - { offsetInCU: 0x26, offset: 0x44E34, size: 0x8, addend: 0x0, symName: __ZN10ApplesGame12SetDirectionERNS_9GameStateERN2sf5EventE, symObjAddr: 0x0, symBinAddr: 0x10000A708, symSize: 0x2E8 }
  - { offsetInCU: 0xFE, offset: 0x44F0C, size: 0x8, addend: 0x0, symName: __ZN10ApplesGame12SetDirectionERNS_9GameStateERN2sf5EventE, symObjAddr: 0x0, symBinAddr: 0x10000A708, symSize: 0x2E8 }
  - { offsetInCU: 0x134, offset: 0x44F42, size: 0x8, addend: 0x0, symName: __ZN10ApplesGame22SetMovementInDirectionERNS_9GameStateERf, symObjAddr: 0x2E8, symBinAddr: 0x10000A9F0, symSize: 0x23C }
  - { offsetInCU: 0x16B, offset: 0x44F79, size: 0x8, addend: 0x0, symName: __ZN10ApplesGame14CheckCollisionERbRNS_9GameStateERN2sf12RenderWindowERNS3_4FontERNS3_5EventES0_S0_, symObjAddr: 0x544, symBinAddr: 0x10000AC4C, symSize: 0x4A0 }
  - { offsetInCU: 0x8140, offset: 0x4CF4E, size: 0x8, addend: 0x0, symName: __Z4fabsB8ue170006f, symObjAddr: 0x9E4, symBinAddr: 0x10000B0EC, symSize: 0x18 }
  - { offsetInCU: 0x816F, offset: 0x4CF7D, size: 0x8, addend: 0x0, symName: __Z4sqrtB8ue170006f, symObjAddr: 0x9FC, symBinAddr: 0x10000B104, symSize: 0x18 }
...
